; ModuleID = 'source-C-CXX/25/588.c'
source_filename = "source-C-CXX/25/588.c"
target datalayout = "e-m:e-p270:32:32-p271:32:32-p272:64:64-i64:64-f80:128-n8:16:32:64-S128"
target triple = "x86_64-pc-linux-gnu"

; Function Attrs: nounwind sspstrong uwtable
define dso_local i32 @main() local_unnamed_addr #0 {
  %1 = alloca [100 x i8], align 16
  %2 = alloca [100 x i8], align 16
  %3 = getelementptr inbounds [100 x i8], [100 x i8]* %1, i64 0, i64 0
  call void @llvm.lifetime.start.p0i8(i64 100, i8* nonnull %3) #4
  %4 = getelementptr inbounds [100 x i8], [100 x i8]* %2, i64 0, i64 0
  call void @llvm.lifetime.start.p0i8(i64 100, i8* nonnull %4) #4
  %5 = call i32 (i8*, ...) bitcast (i32 (...)* @gets to i32 (i8*, ...)*)(i8* nonnull %3) #4
  br label %6

6:                                                ; preds = %6, %0
  %7 = phi i64 [ %11, %6 ], [ 0, %0 ]
  %8 = getelementptr inbounds [100 x i8], [100 x i8]* %1, i64 0, i64 %7
  %9 = load i8, i8* %8, align 1, !tbaa !5
  %10 = icmp eq i8 %9, 0
  %11 = add nuw i64 %7, 1
  br i1 %10, label %12, label %6, !llvm.loop !8

12:                                               ; preds = %6
  %13 = trunc i64 %7 to i32
  br label %14

14:                                               ; preds = %12, %32
  %15 = phi i64 [ 0, %12 ], [ %21, %32 ]
  %16 = phi i64 [ 0, %12 ], [ %26, %32 ]
  %17 = shl i64 %16, 32
  %18 = ashr exact i64 %17, 32
  %19 = getelementptr inbounds [100 x i8], [100 x i8]* %1, i64 0, i64 %18
  %20 = load i8, i8* %19, align 1, !tbaa !5
  %21 = add nuw i64 %15, 1
  %22 = getelementptr inbounds [100 x i8], [100 x i8]* %2, i64 0, i64 %15
  store i8 %20, i8* %22, align 1, !tbaa !5
  br label %23

23:                                               ; preds = %28, %14
  %24 = phi i8 [ 32, %28 ], [ %20, %14 ]
  %25 = phi i64 [ %26, %28 ], [ %18, %14 ]
  %26 = add i64 %25, 1
  %27 = icmp eq i8 %24, 32
  br i1 %27, label %28, label %32

28:                                               ; preds = %23
  %29 = getelementptr inbounds [100 x i8], [100 x i8]* %1, i64 0, i64 %26
  %30 = load i8, i8* %29, align 1, !tbaa !5
  %31 = icmp eq i8 %30, 32
  br i1 %31, label %23, label %32, !llvm.loop !10

32:                                               ; preds = %28, %23
  %33 = trunc i64 %26 to i32
  %34 = icmp slt i32 %33, %13
  br i1 %34, label %14, label %35, !llvm.loop !11

35:                                               ; preds = %32
  %36 = add i64 %15, 1
  %37 = and i64 %36, 4294967295
  br label %38

38:                                               ; preds = %35, %38
  %39 = phi i64 [ 0, %35 ], [ %44, %38 ]
  %40 = getelementptr inbounds [100 x i8], [100 x i8]* %2, i64 0, i64 %39
  %41 = load i8, i8* %40, align 1, !tbaa !5
  %42 = sext i8 %41 to i32
  %43 = call i32 @putchar(i32 %42)
  %44 = add nuw nsw i64 %39, 1
  %45 = icmp eq i64 %44, %37
  br i1 %45, label %46, label %38, !llvm.loop !12

46:                                               ; preds = %38
  call void @llvm.lifetime.end.p0i8(i64 100, i8* nonnull %4) #4
  call void @llvm.lifetime.end.p0i8(i64 100, i8* nonnull %3) #4
  ret i32 0
}

; Function Attrs: argmemonly mustprogress nofree nosync nounwind willreturn
declare void @llvm.lifetime.start.p0i8(i64 immarg, i8* nocapture) #1

declare i32 @gets(...) local_unnamed_addr #2

; Function Attrs: argmemonly mustprogress nofree nosync nounwind willreturn
declare void @llvm.lifetime.end.p0i8(i64 immarg, i8* nocapture) #1

; Function Attrs: nofree nounwind
declare noundef i32 @putchar(i32 noundef) local_unnamed_addr #3


!llvm.module.flags = !{!0, !1, !2, !3}
!llvm.ident = !{!4}

!0 = !{i32 1, !"wchar_size", i32 4}
!1 = !{i32 7, !"PIC Level", i32 2}
!2 = !{i32 7, !"PIE Level", i32 2}
!3 = !{i32 7, !"uwtable", i32 1}
!4 = !{!"clang version 13.0.0"}
!5 = !{!6, !6, i64 0}
!6 = !{!"omnipotent char", !7, i64 0}
!7 = !{!"Simple C/C++ TBAA"}
!8 = distinct !{!8, !9}
!9 = !{!"llvm.loop.mustprogress"}
!10 = distinct !{!10, !9}
!11 = distinct !{!11, !9}
!12 = distinct !{!12, !9}
